target datalayout = "e-m:e-p270:32:32-p271:32:32-p272:64:64-i64:64-i128:128-f80:128-n8:16:32:64-S128"
target triple = "x86_64-pc-linux-gnu"

%struct.nstime_t = type { i64, i32 }
%struct._address = type { i32, i32, ptr, ptr }
%struct.tcp_analysis = type { %struct._tcp_flow_t, %struct._tcp_flow_t, ptr, ptr, ptr, ptr, %struct.nstime_t, %struct.nstime_t, %struct.nstime_t, %struct.nstime_t, i32, i16, i8, ptr, i8, ptr, i32, i32, i32 }
%struct._tcp_flow_t = type { i8, i32, i32, i32, i16, i16, i16, i32, i32, i32, i8, i32, i32, ptr, i16, i32, i32, ptr, ptr, ptr, ptr }
%struct.conversation = type { ptr, ptr, ptr, i32, i32, i32, ptr, ptr, i32, ptr }
%struct.tcp_process_info_t = type { i32, i32, ptr, ptr }

@proto_tcp = internal global i32 0, align 4
@tcp_display_process_info = internal global i32 0, align 4

; Function Attrs: nounwind uwtable
define internal i32 @cmp_address(ptr noundef %0, ptr noundef %1) #0 {
  %3 = alloca i32, align 4
  %4 = alloca ptr, align 8
  %5 = alloca ptr, align 8
  store ptr %0, ptr %4, align 8
  store ptr %1, ptr %5, align 8
  %6 = load ptr, ptr %4, align 8
  %7 = getelementptr inbounds %struct._address, ptr %6, i32 0, i32 0
  %8 = load i32, ptr %7, align 8
  %9 = load ptr, ptr %5, align 8
  %10 = getelementptr inbounds %struct._address, ptr %9, i32 0, i32 0
  %11 = load i32, ptr %10, align 8
  %12 = icmp sgt i32 %8, %11
  br i1 %12, label %13, label %14

13:                                               ; preds = %2
  store i32 1, ptr %3, align 4
  br label %59

14:                                               ; preds = %2
  %15 = load ptr, ptr %4, align 8
  %16 = getelementptr inbounds %struct._address, ptr %15, i32 0, i32 0
  %17 = load i32, ptr %16, align 8
  %18 = load ptr, ptr %5, align 8
  %19 = getelementptr inbounds %struct._address, ptr %18, i32 0, i32 0
  %20 = load i32, ptr %19, align 8
  %21 = icmp slt i32 %17, %20
  br i1 %21, label %22, label %23

22:                                               ; preds = %14
  store i32 -1, ptr %3, align 4
  br label %59

23:                                               ; preds = %14
  %24 = load ptr, ptr %4, align 8
  %25 = getelementptr inbounds %struct._address, ptr %24, i32 0, i32 1
  %26 = load i32, ptr %25, align 4
  %27 = load ptr, ptr %5, align 8
  %28 = getelementptr inbounds %struct._address, ptr %27, i32 0, i32 1
  %29 = load i32, ptr %28, align 4
  %30 = icmp sgt i32 %26, %29
  br i1 %30, label %31, label %32

31:                                               ; preds = %23
  store i32 1, ptr %3, align 4
  br label %59

32:                                               ; preds = %23
  %33 = load ptr, ptr %4, align 8
  %34 = getelementptr inbounds %struct._address, ptr %33, i32 0, i32 1
  %35 = load i32, ptr %34, align 4
  %36 = load ptr, ptr %5, align 8
  %37 = getelementptr inbounds %struct._address, ptr %36, i32 0, i32 1
  %38 = load i32, ptr %37, align 4
  %39 = icmp slt i32 %35, %38
  br i1 %39, label %40, label %41

40:                                               ; preds = %32
  store i32 -1, ptr %3, align 4
  br label %59

41:                                               ; preds = %32
  %42 = load ptr, ptr %4, align 8
  %43 = getelementptr inbounds %struct._address, ptr %42, i32 0, i32 1
  %44 = load i32, ptr %43, align 4
  %45 = icmp eq i32 %44, 0
  br i1 %45, label %46, label %47

46:                                               ; preds = %41
  store i32 0, ptr %3, align 4
  br label %59

47:                                               ; preds = %41
  %48 = load ptr, ptr %4, align 8
  %49 = getelementptr inbounds %struct._address, ptr %48, i32 0, i32 2
  %50 = load ptr, ptr %49, align 8
  %51 = load ptr, ptr %5, align 8
  %52 = getelementptr inbounds %struct._address, ptr %51, i32 0, i32 2
  %53 = load ptr, ptr %52, align 8
  %54 = load ptr, ptr %4, align 8
  %55 = getelementptr inbounds %struct._address, ptr %54, i32 0, i32 1
  %56 = load i32, ptr %55, align 4
  %57 = sext i32 %56 to i64
  %58 = call i32 @memcmp(ptr noundef %50, ptr noundef %53, i64 noundef %57) #11
  store i32 %58, ptr %3, align 4
  br label %59

59:                                               ; preds = %47, %46, %40, %31, %22, %13
  %60 = load i32, ptr %3, align 4
  ret i32 %60
}

; Function Attrs: nounwind uwtable
define hidden void @add_tcp_process_info(i32 noundef %0, ptr noundef %1, ptr noundef %2, i16 noundef zeroext %3, i16 noundef zeroext %4, i32 noundef %5, i32 noundef %6, ptr noundef %7, ptr noundef %8) #0 {
  %10 = alloca i32, align 4
  %11 = alloca ptr, align 8
  %12 = alloca ptr, align 8
  %13 = alloca i16, align 2
  %14 = alloca i16, align 2
  %15 = alloca i32, align 4
  %16 = alloca i32, align 4
  %17 = alloca ptr, align 8
  %18 = alloca ptr, align 8
  %19 = alloca ptr, align 8
  %20 = alloca ptr, align 8
  %21 = alloca ptr, align 8
  store i32 %0, ptr %10, align 4
  store ptr %1, ptr %11, align 8
  store ptr %2, ptr %12, align 8
  store i16 %3, ptr %13, align 2
  store i16 %4, ptr %14, align 2
  store i32 %5, ptr %15, align 4
  store i32 %6, ptr %16, align 4
  store ptr %7, ptr %17, align 8
  store ptr %8, ptr %18, align 8
  store ptr null, ptr %21, align 8
  %22 = load i32, ptr @tcp_display_process_info, align 4
  %23 = icmp ne i32 %22, 0
  br i1 %23, label %25, label %24

24:                                               ; preds = %9
  br label %134

25:                                               ; preds = %9
  %26 = load i32, ptr %10, align 4
  %27 = load ptr, ptr %11, align 8
  %28 = load ptr, ptr %12, align 8
  %29 = load i16, ptr %13, align 2
  %30 = zext i16 %29 to i32
  %31 = load i16, ptr %14, align 2
  %32 = zext i16 %31 to i32
  %33 = call ptr @find_conversation(i32 noundef %26, ptr noundef %27, ptr noundef %28, i32 noundef 2, i32 noundef %30, i32 noundef %32, i32 noundef 0)
  store ptr %33, ptr %19, align 8
  %34 = load ptr, ptr %19, align 8
  %35 = icmp ne ptr %34, null
  br i1 %35, label %37, label %36

36:                                               ; preds = %25
  br label %134

37:                                               ; preds = %25
  %38 = load ptr, ptr %19, align 8
  %39 = load i32, ptr @proto_tcp, align 4
  %40 = call ptr @conversation_get_proto_data(ptr noundef %38, i32 noundef %39)
  store ptr %40, ptr %20, align 8
  %41 = load ptr, ptr %20, align 8
  %42 = icmp ne ptr %41, null
  br i1 %42, label %44, label %43

43:                                               ; preds = %37
  br label %134

44:                                               ; preds = %37
  %45 = load ptr, ptr %11, align 8
  %46 = load ptr, ptr %19, align 8
  %47 = getelementptr inbounds %struct.conversation, ptr %46, i32 0, i32 9
  %48 = load ptr, ptr %47, align 8
  %49 = call ptr @conversation_key_addr1(ptr noundef %48)
  %50 = call i32 @cmp_address(ptr noundef %45, ptr noundef %49)
  %51 = icmp eq i32 %50, 0
  br i1 %51, label %52, label %63

52:                                               ; preds = %44
  %53 = load i16, ptr %13, align 2
  %54 = zext i16 %53 to i32
  %55 = load ptr, ptr %19, align 8
  %56 = getelementptr inbounds %struct.conversation, ptr %55, i32 0, i32 9
  %57 = load ptr, ptr %56, align 8
  %58 = call i32 @conversation_key_port1(ptr noundef %57)
  %59 = icmp eq i32 %54, %58
  br i1 %59, label %60, label %63

60:                                               ; preds = %52
  %61 = load ptr, ptr %20, align 8
  %62 = getelementptr inbounds %struct.tcp_analysis, ptr %61, i32 0, i32 0
  store ptr %62, ptr %21, align 8
  br label %83

63:                                               ; preds = %52, %44
  %64 = load ptr, ptr %12, align 8
  %65 = load ptr, ptr %19, align 8
  %66 = getelementptr inbounds %struct.conversation, ptr %65, i32 0, i32 9
  %67 = load ptr, ptr %66, align 8
  %68 = call ptr @conversation_key_addr1(ptr noundef %67)
  %69 = call i32 @cmp_address(ptr noundef %64, ptr noundef %68)
  %70 = icmp eq i32 %69, 0
  br i1 %70, label %71, label %82

71:                                               ; preds = %63
  %72 = load i16, ptr %14, align 2
  %73 = zext i16 %72 to i32
  %74 = load ptr, ptr %19, align 8
  %75 = getelementptr inbounds %struct.conversation, ptr %74, i32 0, i32 9
  %76 = load ptr, ptr %75, align 8
  %77 = call i32 @conversation_key_port1(ptr noundef %76)
  %78 = icmp eq i32 %73, %77
  br i1 %78, label %79, label %82

79:                                               ; preds = %71
  %80 = load ptr, ptr %20, align 8
  %81 = getelementptr inbounds %struct.tcp_analysis, ptr %80, i32 0, i32 1
  store ptr %81, ptr %21, align 8
  br label %82

82:                                               ; preds = %79, %71, %63
  br label %83

83:                                               ; preds = %82, %60
  %84 = load ptr, ptr %21, align 8
  %85 = icmp ne ptr %84, null
  br i1 %85, label %86, label %98

86:                                               ; preds = %83
  %87 = load ptr, ptr %21, align 8
  %88 = getelementptr inbounds %struct._tcp_flow_t, ptr %87, i32 0, i32 19
  %89 = load ptr, ptr %88, align 8
  %90 = icmp ne ptr %89, null
  br i1 %90, label %91, label %99

91:                                               ; preds = %86
  %92 = load ptr, ptr %21, align 8
  %93 = getelementptr inbounds %struct._tcp_flow_t, ptr %92, i32 0, i32 19
  %94 = load ptr, ptr %93, align 8
  %95 = getelementptr inbounds %struct.tcp_process_info_t, ptr %94, i32 0, i32 3
  %96 = load ptr, ptr %95, align 8
  %97 = icmp ne ptr %96, null
  br i1 %97, label %98, label %99

98:                                               ; preds = %91, %83
  br label %134

99:                                               ; preds = %91, %86
  %100 = load ptr, ptr %21, align 8
  %101 = getelementptr inbounds %struct._tcp_flow_t, ptr %100, i32 0, i32 19
  %102 = load ptr, ptr %101, align 8
  %103 = icmp eq ptr %102, null
  br i1 %103, label %104, label %109

104:                                              ; preds = %99
  %105 = call ptr @wmem_file_scope()
  %106 = call noalias ptr @wmem_alloc0(ptr noundef %105, i64 noundef 24)
  %107 = load ptr, ptr %21, align 8
  %108 = getelementptr inbounds %struct._tcp_flow_t, ptr %107, i32 0, i32 19
  store ptr %106, ptr %108, align 8
  br label %109

109:                                              ; preds = %104, %99
  %110 = load i32, ptr %15, align 4
  %111 = load ptr, ptr %21, align 8
  %112 = getelementptr inbounds %struct._tcp_flow_t, ptr %111, i32 0, i32 19
  %113 = load ptr, ptr %112, align 8
  %114 = getelementptr inbounds %struct.tcp_process_info_t, ptr %113, i32 0, i32 0
  store i32 %110, ptr %114, align 8
  %115 = load i32, ptr %16, align 4
  %116 = load ptr, ptr %21, align 8
  %117 = getelementptr inbounds %struct._tcp_flow_t, ptr %116, i32 0, i32 19
  %118 = load ptr, ptr %117, align 8
  %119 = getelementptr inbounds %struct.tcp_process_info_t, ptr %118, i32 0, i32 1
  store i32 %115, ptr %119, align 4
  %120 = call ptr @wmem_file_scope()
  %121 = load ptr, ptr %17, align 8
  %122 = call noalias ptr @wmem_strdup(ptr noundef %120, ptr noundef %121)
  %123 = load ptr, ptr %21, align 8
  %124 = getelementptr inbounds %struct._tcp_flow_t, ptr %123, i32 0, i32 19
  %125 = load ptr, ptr %124, align 8
  %126 = getelementptr inbounds %struct.tcp_process_info_t, ptr %125, i32 0, i32 2
  store ptr %122, ptr %126, align 8
  %127 = call ptr @wmem_file_scope()
  %128 = load ptr, ptr %18, align 8
  %129 = call noalias ptr @wmem_strdup(ptr noundef %127, ptr noundef %128)
  %130 = load ptr, ptr %21, align 8
  %131 = getelementptr inbounds %struct._tcp_flow_t, ptr %130, i32 0, i32 19
  %132 = load ptr, ptr %131, align 8
  %133 = getelementptr inbounds %struct.tcp_process_info_t, ptr %132, i32 0, i32 3
  store ptr %129, ptr %133, align 8
  br label %134

134:                                              ; preds = %109, %98, %43, %36, %24
  ret void
}