; Function Attrs: nounwind uwtable
define hidden void @add_tcp_process_info(i32 noundef %0, ptr noundef %1, ptr noundef %2, i16 noundef zeroext %3, i16 noundef zeroext %4, i32 noundef %5, i32 noundef %6, ptr noundef %7, ptr noundef %8) local_unnamed_addr #0 {
  %10 = load i32, ptr @tcp_display_process_info, align 4
  %.not = icmp eq i32 %10, 0
  br i1 %.not, label %.thread, label %11

11:                                               ; preds = %9
  %12 = zext i16 %3 to i32
  %13 = zext i16 %4 to i32
  %14 = tail call ptr @find_conversation(i32 noundef %0, ptr noundef %1, ptr noundef %2, i32 noundef 2, i32 noundef %12, i32 noundef %13, i32 noundef 0) #20
  %.not33 = icmp eq ptr %14, null
  br i1 %.not33, label %.thread, label %15

15:                                               ; preds = %11
  %16 = load i32, ptr @proto_tcp, align 4
  %17 = tail call ptr @conversation_get_proto_data(ptr noundef nonnull %14, i32 noundef %16) #20
  %.not34 = icmp eq ptr %17, null
  br i1 %.not34, label %.thread, label %18

18:                                               ; preds = %15
  %19 = getelementptr inbounds nuw i8, ptr %14, i64 64
  %20 = load ptr, ptr %19, align 8
  %21 = tail call ptr @conversation_key_addr1(ptr noundef %20) #20
  %22 = load i32, ptr %1, align 8
  %23 = load i32, ptr %21, align 8
  %or.cond.not = icmp eq i32 %22, %23
  br i1 %or.cond.not, label %24, label %cmp_address.exit.thread

24:                                               ; preds = %18
  %25 = getelementptr inbounds nuw i8, ptr %1, i64 4
  %26 = load i32, ptr %25, align 4
  %27 = getelementptr inbounds nuw i8, ptr %21, i64 4
  %28 = load i32, ptr %27, align 4
  %or.cond49.not = icmp eq i32 %26, %28
  br i1 %or.cond49.not, label %29, label %cmp_address.exit.thread

29:                                               ; preds = %24
  %30 = icmp eq i32 %26, 0
  br i1 %30, label %cmp_address.exit.thread41, label %cmp_address.exit

cmp_address.exit:                                 ; preds = %29
  %31 = getelementptr inbounds nuw i8, ptr %1, i64 8
  %32 = load ptr, ptr %31, align 8
  %33 = getelementptr inbounds nuw i8, ptr %21, i64 8
  %34 = load ptr, ptr %33, align 8
  %35 = sext i32 %26 to i64
  %bcmp = tail call i32 @bcmp(ptr %32, ptr %34, i64 %35)
  %36 = icmp eq i32 %bcmp, 0
  br i1 %36, label %cmp_address.exit.thread41, label %cmp_address.exit.thread

cmp_address.exit.thread41:                        ; preds = %29, %cmp_address.exit
  %37 = load ptr, ptr %19, align 8
  %38 = tail call i32 @conversation_key_port1(ptr noundef %37) #20
  %39 = icmp eq i32 %38, %12
  br i1 %39, label %select.unfold, label %cmp_address.exit.thread

cmp_address.exit.thread:                          ; preds = %24, %18, %cmp_address.exit.thread41, %cmp_address.exit
  %40 = load ptr, ptr %19, align 8
  %41 = tail call ptr @conversation_key_addr1(ptr noundef %40) #20
  %42 = load i32, ptr %2, align 8
  %43 = load i32, ptr %41, align 8
  %or.cond50.not = icmp eq i32 %42, %43
  br i1 %or.cond50.not, label %44, label %.thread

44:                                               ; preds = %cmp_address.exit.thread
  %45 = getelementptr inbounds nuw i8, ptr %2, i64 4
  %46 = load i32, ptr %45, align 4
  %47 = getelementptr inbounds nuw i8, ptr %41, i64 4
  %48 = load i32, ptr %47, align 4
  %or.cond51.not = icmp eq i32 %46, %48
  br i1 %or.cond51.not, label %49, label %.thread

49:                                               ; preds = %44
  %50 = icmp eq i32 %46, 0
  br i1 %50, label %cmp_address.exit39.thread44, label %cmp_address.exit39

cmp_address.exit39:                               ; preds = %49
  %51 = getelementptr inbounds nuw i8, ptr %2, i64 8
  %52 = load ptr, ptr %51, align 8
  %53 = getelementptr inbounds nuw i8, ptr %41, i64 8
  %54 = load ptr, ptr %53, align 8
  %55 = sext i32 %46 to i64
  %bcmp52 = tail call i32 @bcmp(ptr %52, ptr %54, i64 %55)
  %56 = icmp eq i32 %bcmp52, 0
  br i1 %56, label %cmp_address.exit39.thread44, label %.thread

cmp_address.exit39.thread44:                      ; preds = %49, %cmp_address.exit39
  %57 = load ptr, ptr %19, align 8
  %58 = tail call i32 @conversation_key_port1(ptr noundef %57) #20
  %59 = icmp eq i32 %58, %13
  %60 = getelementptr inbounds nuw i8, ptr %17, i64 104
  br i1 %59, label %select.unfold, label %.thread

select.unfold:                                    ; preds = %cmp_address.exit39.thread44, %cmp_address.exit.thread41
  %.0 = phi ptr [ %17, %cmp_address.exit.thread41 ], [ %60, %cmp_address.exit39.thread44 ]
  %61 = getelementptr inbounds nuw i8, ptr %.0, i64 88
  %62 = load ptr, ptr %61, align 8
  %.not36 = icmp eq ptr %62, null
  br i1 %.not36, label %66, label %63

63:                                               ; preds = %select.unfold
  %64 = getelementptr inbounds nuw i8, ptr %62, i64 16
  %65 = load ptr, ptr %64, align 8
  %.not37 = icmp eq ptr %65, null
  br i1 %.not37, label %69, label %.thread

66:                                               ; preds = %select.unfold
  %67 = tail call ptr @wmem_file_scope() #20
  %68 = tail call noalias ptr @wmem_alloc0(ptr noundef %67, i64 noundef 24) #20
  store ptr %68, ptr %61, align 8
  br label %69

69:                                               ; preds = %63, %66
  %70 = phi ptr [ %62, %63 ], [ %68, %66 ]
  store i32 %5, ptr %70, align 8
  %71 = load ptr, ptr %61, align 8
  %72 = getelementptr inbounds nuw i8, ptr %71, i64 4
  store i32 %6, ptr %72, align 4
  %73 = tail call ptr @wmem_file_scope() #20
  %74 = tail call noalias ptr @wmem_strdup(ptr noundef %73, ptr noundef %7) #20
  %75 = load ptr, ptr %61, align 8
  %76 = getelementptr inbounds nuw i8, ptr %75, i64 8
  store ptr %74, ptr %76, align 8
  %77 = tail call ptr @wmem_file_scope() #20
  %78 = tail call noalias ptr @wmem_strdup(ptr noundef %77, ptr noundef %8) #20
  %79 = load ptr, ptr %61, align 8
  %80 = getelementptr inbounds nuw i8, ptr %79, i64 16
  store ptr %78, ptr %80, align 8
  br label %.thread

.thread:                                          ; preds = %44, %cmp_address.exit.thread, %cmp_address.exit39.thread44, %cmp_address.exit39, %63, %15, %11, %9, %69
  ret void
}